target datalayout = "e-m:e-p270:32:32-p271:32:32-p272:64:64-i64:64-i128:128-f80:128-n8:16:32:64-S128"
target triple = "x86_64-pc-linux-gnu"

%struct.dlist_head = type { %struct.dlist_node }
%struct.dlist_node = type { ptr, ptr }
%struct.AutoVacuumShmemStruct = type { [2 x i32], i32, %struct.dclist_head, %struct.dlist_head, ptr, [256 x %struct.AutoVacuumWorkItem], %struct.pg_atomic_uint32 }
%struct.dclist_head = type { %struct.dlist_head, i32 }
%struct.AutoVacuumWorkItem = type { i32, i8, i8, i32, i32, i32 }
%struct.pg_atomic_uint32 = type { i32 }
%union.LWLockPadded = type { %struct.LWLock, [112 x i8] }
%struct.LWLock = type { i16, %struct.pg_atomic_uint32, %struct.proclist_head }
%struct.proclist_head = type { i32, i32 }

@AutoVacuumShmem = internal global ptr null, align 8
@MainLWLockArray = external global ptr, align 8
@MyDatabaseId = external global i32, align 4

; Function Attrs: nounwind uwtable
define dso_local zeroext i1 @AutoVacuumRequestWork(i32 noundef %0, i32 noundef %1, i32 noundef %2) #4 {
  %4 = alloca i32, align 4
  %5 = alloca i32, align 4
  %6 = alloca i32, align 4
  %7 = alloca i32, align 4
  %8 = alloca i8, align 1
  %9 = alloca ptr, align 8
  %10 = alloca i32, align 4
  store i32 %0, ptr %4, align 4
  store i32 %1, ptr %5, align 4
  store i32 %2, ptr %6, align 4
  call void @llvm.lifetime.start.p0(i64 4, ptr %7) #14
  call void @llvm.lifetime.start.p0(i64 1, ptr %8) #14
  store i8 0, ptr %8, align 1
  %11 = load ptr, ptr @MainLWLockArray, align 8
  %12 = getelementptr inbounds %union.LWLockPadded, ptr %11, i64 22
  %13 = call zeroext i1 @LWLockAcquire(ptr noundef %12, i32 noundef 0)
  store i32 0, ptr %7, align 4
  br label %14

14:                                               ; preds = %47, %3
  %15 = load i32, ptr %7, align 4
  %16 = icmp slt i32 %15, 256
  br i1 %16, label %17, label %50

17:                                               ; preds = %14
  call void @llvm.lifetime.start.p0(i64 8, ptr %9) #14
  %18 = load ptr, ptr @AutoVacuumShmem, align 8
  %19 = getelementptr inbounds nuw %struct.AutoVacuumShmemStruct, ptr %18, i32 0, i32 5
  %20 = load i32, ptr %7, align 4
  %21 = sext i32 %20 to i64
  %22 = getelementptr inbounds [256 x %struct.AutoVacuumWorkItem], ptr %19, i64 0, i64 %21
  store ptr %22, ptr %9, align 8
  %23 = load ptr, ptr %9, align 8
  %24 = getelementptr inbounds nuw %struct.AutoVacuumWorkItem, ptr %23, i32 0, i32 1
  %25 = load i8, ptr %24, align 4, !range !6, !noundef !7
  %26 = trunc i8 %25 to i1
  br i1 %26, label %27, label %28

27:                                               ; preds = %17
  store i32 4, ptr %10, align 4
  br label %45

28:                                               ; preds = %17
  %29 = load ptr, ptr %9, align 8
  %30 = getelementptr inbounds nuw %struct.AutoVacuumWorkItem, ptr %29, i32 0, i32 1
  store i8 1, ptr %30, align 4
  %31 = load ptr, ptr %9, align 8
  %32 = getelementptr inbounds nuw %struct.AutoVacuumWorkItem, ptr %31, i32 0, i32 2
  store i8 0, ptr %32, align 1
  %33 = load i32, ptr %4, align 4
  %34 = load ptr, ptr %9, align 8
  %35 = getelementptr inbounds nuw %struct.AutoVacuumWorkItem, ptr %34, i32 0, i32 0
  store i32 %33, ptr %35, align 4
  %36 = load i32, ptr @MyDatabaseId, align 4
  %37 = load ptr, ptr %9, align 8
  %38 = getelementptr inbounds nuw %struct.AutoVacuumWorkItem, ptr %37, i32 0, i32 3
  store i32 %36, ptr %38, align 4
  %39 = load i32, ptr %5, align 4
  %40 = load ptr, ptr %9, align 8
  %41 = getelementptr inbounds nuw %struct.AutoVacuumWorkItem, ptr %40, i32 0, i32 4
  store i32 %39, ptr %41, align 4
  %42 = load i32, ptr %6, align 4
  %43 = load ptr, ptr %9, align 8
  %44 = getelementptr inbounds nuw %struct.AutoVacuumWorkItem, ptr %43, i32 0, i32 5
  store i32 %42, ptr %44, align 4
  store i8 1, ptr %8, align 1
  store i32 2, ptr %10, align 4
  br label %45

45:                                               ; preds = %28, %27
  call void @llvm.lifetime.end.p0(i64 8, ptr %9) #14
  %46 = load i32, ptr %10, align 4
  switch i32 %46, label %55 [
    i32 4, label %47
    i32 2, label %50
  ]

47:                                               ; preds = %45
  %48 = load i32, ptr %7, align 4
  %49 = add i32 %48, 1
  store i32 %49, ptr %7, align 4
  br label %14, !llvm.loop !22

50:                                               ; preds = %45, %14
  %51 = load ptr, ptr @MainLWLockArray, align 8
  %52 = getelementptr inbounds %union.LWLockPadded, ptr %51, i64 22
  call void @LWLockRelease(ptr noundef %52)
  %53 = load i8, ptr %8, align 1, !range !6, !noundef !7
  %54 = trunc i8 %53 to i1
  store i32 1, ptr %10, align 4
  call void @llvm.lifetime.end.p0(i64 1, ptr %8) #14
  call void @llvm.lifetime.end.p0(i64 4, ptr %7) #14
  ret i1 %54

55:                                               ; preds = %45
  unreachable
}