; Function Attrs: nounwind uwtable
define dso_local noundef zeroext i1 @AutoVacuumRequestWork(i32 noundef %0, i32 noundef %1, i32 noundef %2) local_unnamed_addr #4 {
  %4 = load ptr, ptr @MainLWLockArray, align 8
  %5 = getelementptr inbounds nuw i8, ptr %4, i64 2816
  %6 = tail call zeroext i1 @LWLockAcquire(ptr noundef nonnull %5, i32 noundef 0) #18
  %7 = load ptr, ptr @AutoVacuumShmem, align 8
  %8 = getelementptr inbounds nuw i8, ptr %7, i64 64
  br label %10

9:                                                ; preds = %10
  %indvars.iv.next = add nuw nsw i64 %indvars.iv, 1
  %exitcond.not = icmp eq i64 %indvars.iv.next, 256
  br i1 %exitcond.not, label %.loopexit, label %10, !llvm.loop !21

10:                                               ; preds = %3, %9
  %indvars.iv = phi i64 [ 0, %3 ], [ %indvars.iv.next, %9 ]
  %11 = getelementptr inbounds nuw [256 x %struct.AutoVacuumWorkItem], ptr %8, i64 0, i64 %indvars.iv
  %12 = getelementptr inbounds nuw i8, ptr %11, i64 4
  %13 = load i8, ptr %12, align 4, !range !4, !noundef !5
  %14 = trunc nuw i8 %13 to i1
  br i1 %14, label %9, label %15

15:                                               ; preds = %10
  %16 = getelementptr inbounds nuw i8, ptr %11, i64 4
  store i8 1, ptr %16, align 4
  %17 = getelementptr inbounds nuw i8, ptr %11, i64 5
  store i8 0, ptr %17, align 1
  store i32 %0, ptr %11, align 4
  %18 = load i32, ptr @MyDatabaseId, align 4
  %19 = getelementptr inbounds nuw i8, ptr %11, i64 8
  store i32 %18, ptr %19, align 4
  %20 = getelementptr inbounds nuw i8, ptr %11, i64 12
  store i32 %1, ptr %20, align 4
  %21 = getelementptr inbounds nuw i8, ptr %11, i64 16
  store i32 %2, ptr %21, align 4
  br label %.loopexit

.loopexit:                                        ; preds = %9, %15
  %22 = xor i1 %14, true
  %23 = load ptr, ptr @MainLWLockArray, align 8
  %24 = getelementptr inbounds nuw i8, ptr %23, i64 2816
  tail call void @LWLockRelease(ptr noundef nonnull %24) #18
  ret i1 %22
}